   1              		.syntax unified
   2              		.arch armv7e-m
   3              		.eabi_attribute 27, 1
   4              		.eabi_attribute 28, 1
   5              		.fpu fpv4-sp-d16
   6              		.eabi_attribute 20, 1
   7              		.eabi_attribute 21, 1
   8              		.eabi_attribute 23, 3
   9              		.eabi_attribute 24, 1
  10              		.eabi_attribute 25, 1
  11              		.eabi_attribute 26, 1
  12              		.eabi_attribute 30, 4
  13              		.eabi_attribute 34, 1
  14              		.eabi_attribute 18, 4
  15              		.thumb
  16              		.syntax unified
  17              		.file	"sing_song.c"
  18              		.text
  19              	.Ltext0:
  20              		.cfi_sections	.debug_frame
  21              		.align	1
  22              		.global	sing_note
  23              		.thumb
  24              		.thumb_func
  25              		.type	sing_note, %function
  26              	sing_note:
  27              	.LFB398:
  28              		.file 1 "src/sys/sing_song.c"
   1:src/sys/sing_song.c **** #include "stdio.h"
   2:src/sys/sing_song.c **** #include "sing_song.h"
   3:src/sys/sing_song.c **** #include "sys/clock.h"
   4:src/sys/sing_song.c **** #include "devices.h"
   5:src/sys/sing_song.c **** #include "potentiometer.h"
   6:src/sys/sing_song.c **** 
   7:src/sys/sing_song.c **** 
   8:src/sys/sing_song.c **** volatile uint32_t flag_play_note;
   9:src/sys/sing_song.c **** volatile uint32_t counter;            
  10:src/sys/sing_song.c **** volatile uint32_t play_pause;
  11:src/sys/sing_song.c **** 
  12:src/sys/sing_song.c **** 
  13:src/sys/sing_song.c **** void sing_note(uint32_t frequency, uint32_t duree)
  14:src/sys/sing_song.c **** {
  29              		.loc 1 14 0
  30              		.cfi_startproc
  31              		@ args = 0, pretend = 0, frame = 0
  32              		@ frame_needed = 0, uses_anonymous_args = 0
  33              	.LVL0:
  34 0000 38B5     		push	{r3, r4, r5, lr}
  35              		.cfi_def_cfa_offset 16
  36              		.cfi_offset 3, -16
  37              		.cfi_offset 4, -12
  38              		.cfi_offset 5, -8
  39              		.cfi_offset 14, -4
  40              		.loc 1 14 0
  41 0002 0D46     		mov	r5, r1
  42 0004 0446     		mov	r4, r0
  15:src/sys/sing_song.c ****     
  16:src/sys/sing_song.c ****     TIM2.ARR = (get_APB1TIMCLK() / (TIM2.PSC + 1)) / (frequency - 1);
  43              		.loc 1 16 0
  44 0006 FFF7FEFF 		bl	get_APB1TIMCLK
  45              	.LVL1:
  46 000a 0E4A     		ldr	r2, .L6
  47 000c 936A     		ldr	r3, [r2, #40]
  48 000e 013C     		subs	r4, r4, #1
  49              	.LVL2:
  50 0010 0133     		adds	r3, r3, #1
  51 0012 B0FBF3F0 		udiv	r0, r0, r3
  52 0016 B0FBF4F0 		udiv	r0, r0, r4
  53 001a D062     		str	r0, [r2, #44]
  17:src/sys/sing_song.c ****     
  18:src/sys/sing_song.c ****     /*TIM2.CCR2 = TIM2.ARR / 50;*/
  19:src/sys/sing_song.c ****     TIM2.EGR |= 1;
  54              		.loc 1 19 0
  55 001c 5369     		ldr	r3, [r2, #20]
  56 001e 43F00103 		orr	r3, r3, #1
  57 0022 5361     		str	r3, [r2, #20]
  20:src/sys/sing_song.c **** /*
  21:src/sys/sing_song.c ****     TIM2.CCMR1 |= 0x6800;
  22:src/sys/sing_song.c **** 	TIM2.CR1 |= (1<<7); 
  23:src/sys/sing_song.c **** 	TIM2.EGR |= 1;
  24:src/sys/sing_song.c **** 	TIM2.CCER |= (1<<4);
  25:src/sys/sing_song.c ****     */
  26:src/sys/sing_song.c ****     
  27:src/sys/sing_song.c ****     
  28:src/sys/sing_song.c ****     counter = duree;
  58              		.loc 1 28 0
  59 0024 084B     		ldr	r3, .L6+4
  60 0026 1D60     		str	r5, [r3]
  29:src/sys/sing_song.c ****     /*printf("sing ");*/
  30:src/sys/sing_song.c ****     
  31:src/sys/sing_song.c ****     TIM2.CR1 |= 1;
  61              		.loc 1 31 0
  62 0028 1168     		ldr	r1, [r2]
  63 002a 41F00101 		orr	r1, r1, #1
  64 002e 1160     		str	r1, [r2]
  32:src/sys/sing_song.c ****     
  33:src/sys/sing_song.c ****     /* Flag play note */
  34:src/sys/sing_song.c ****     flag_play_note = 1;    
  65              		.loc 1 34 0
  66 0030 064A     		ldr	r2, .L6+8
  67 0032 0121     		movs	r1, #1
  68 0034 1160     		str	r1, [r2]
  69 0036 1C46     		mov	r4, r3
  70              	.LVL3:
  71              	.L2:
  35:src/sys/sing_song.c ****     
  36:src/sys/sing_song.c ****     while(counter != 0)
  72              		.loc 1 36 0
  73 0038 2368     		ldr	r3, [r4]
  74 003a 13B1     		cbz	r3, .L5
  37:src/sys/sing_song.c ****         {
  38:src/sys/sing_song.c ****             modify_volume_potentiometer();
  75              		.loc 1 38 0
  76 003c FFF7FEFF 		bl	modify_volume_potentiometer
  77              	.LVL4:
  78 0040 FAE7     		b	.L2
  79              	.L5:
  39:src/sys/sing_song.c ****         }
  40:src/sys/sing_song.c ****     
  41:src/sys/sing_song.c **** }
  80              		.loc 1 41 0
  81 0042 38BD     		pop	{r3, r4, r5, pc}
  82              	.LVL5:
  83              	.L7:
  84              		.align	2
  85              	.L6:
  86 0044 00000000 		.word	TIM2
  87 0048 00000000 		.word	counter
  88 004c 00000000 		.word	flag_play_note
  89              		.cfi_endproc
  90              	.LFE398:
  91              		.size	sing_note, .-sing_note
  92              		.align	1
  93              		.global	pause_entre_note
  94              		.thumb
  95              		.thumb_func
  96              		.type	pause_entre_note, %function
  97              	pause_entre_note:
  98              	.LFB399:
  42:src/sys/sing_song.c **** 
  43:src/sys/sing_song.c **** void pause_entre_note()
  44:src/sys/sing_song.c **** {
  99              		.loc 1 44 0
 100              		.cfi_startproc
 101              		@ args = 0, pretend = 0, frame = 0
 102              		@ frame_needed = 0, uses_anonymous_args = 0
 103 0050 08B5     		push	{r3, lr}
 104              		.cfi_def_cfa_offset 8
 105              		.cfi_offset 3, -8
 106              		.cfi_offset 14, -4
  45:src/sys/sing_song.c **** 
  46:src/sys/sing_song.c ****     /*TIM2.ARR = get_APB1TIMCLK() / 40000 - 1;*/
  47:src/sys/sing_song.c ****     TIM2.ARR = (get_APB1TIMCLK() / (TIM2.PSC + 1)) / (40000 - 1);
 107              		.loc 1 47 0
 108 0052 FFF7FEFF 		bl	get_APB1TIMCLK
 109              	.LVL6:
 110 0056 0C4A     		ldr	r2, .L11
 111 0058 936A     		ldr	r3, [r2, #40]
 112 005a 0133     		adds	r3, r3, #1
 113 005c B0FBF3F0 		udiv	r0, r0, r3
 114 0060 49F63F43 		movw	r3, #39999
 115 0064 B0FBF3F0 		udiv	r0, r0, r3
 116 0068 D062     		str	r0, [r2, #44]
  48:src/sys/sing_song.c ****     TIM2.EGR |= 1;
 117              		.loc 1 48 0
 118 006a 5369     		ldr	r3, [r2, #20]
 119 006c 43F00103 		orr	r3, r3, #1
 120 0070 5361     		str	r3, [r2, #20]
  49:src/sys/sing_song.c ****     counter = 100;
 121              		.loc 1 49 0
 122 0072 064B     		ldr	r3, .L11+4
 123 0074 6422     		movs	r2, #100
 124 0076 1A60     		str	r2, [r3]
  50:src/sys/sing_song.c ****     flag_play_note = 1;
 125              		.loc 1 50 0
 126 0078 054A     		ldr	r2, .L11+8
 127 007a 0121     		movs	r1, #1
 128 007c 1160     		str	r1, [r2]
 129              	.L9:
  51:src/sys/sing_song.c ****     /*printf("Pauza\n");*/
  52:src/sys/sing_song.c ****     
  53:src/sys/sing_song.c ****     while(counter != 0);
 130              		.loc 1 53 0 discriminator 1
 131 007e 1A68     		ldr	r2, [r3]
 132 0080 002A     		cmp	r2, #0
 133 0082 FCD1     		bne	.L9
  54:src/sys/sing_song.c **** }
 134              		.loc 1 54 0
 135 0084 08BD     		pop	{r3, pc}
 136              	.L12:
 137 0086 00BF     		.align	2
 138              	.L11:
 139 0088 00000000 		.word	TIM2
 140 008c 00000000 		.word	counter
 141 0090 00000000 		.word	flag_play_note
 142              		.cfi_endproc
 143              	.LFE399:
 144              		.size	pause_entre_note, .-pause_entre_note
 145              		.align	1
 146              		.global	pause_entre_songs
 147              		.thumb
 148              		.thumb_func
 149              		.type	pause_entre_songs, %function
 150              	pause_entre_songs:
 151              	.LFB400:
  55:src/sys/sing_song.c **** 
  56:src/sys/sing_song.c **** void pause_entre_songs()
  57:src/sys/sing_song.c **** {
 152              		.loc 1 57 0
 153              		.cfi_startproc
 154              		@ args = 0, pretend = 0, frame = 0
 155              		@ frame_needed = 0, uses_anonymous_args = 0
 156 0094 08B5     		push	{r3, lr}
 157              		.cfi_def_cfa_offset 8
 158              		.cfi_offset 3, -8
 159              		.cfi_offset 14, -4
  58:src/sys/sing_song.c ****     
  59:src/sys/sing_song.c ****     /*TIM2.ARR = get_APB1TIMCLK() / 40000 - 1;*/
  60:src/sys/sing_song.c ****     TIM2.ARR = (get_APB1TIMCLK() / (TIM2.PSC + 1)) / 40000 - 1;
 160              		.loc 1 60 0
 161 0096 FFF7FEFF 		bl	get_APB1TIMCLK
 162              	.LVL7:
 163 009a 0D4A     		ldr	r2, .L16
 164 009c 936A     		ldr	r3, [r2, #40]
 165 009e 0133     		adds	r3, r3, #1
 166 00a0 B0FBF3F0 		udiv	r0, r0, r3
 167 00a4 49F64043 		movw	r3, #40000
 168 00a8 B0FBF3F0 		udiv	r0, r0, r3
 169 00ac 0138     		subs	r0, r0, #1
 170 00ae D062     		str	r0, [r2, #44]
  61:src/sys/sing_song.c ****     TIM2.EGR |= 1;
 171              		.loc 1 61 0
 172 00b0 5369     		ldr	r3, [r2, #20]
 173 00b2 43F00103 		orr	r3, r3, #1
 174 00b6 5361     		str	r3, [r2, #20]
  62:src/sys/sing_song.c ****     counter = 3000;
 175              		.loc 1 62 0
 176 00b8 064B     		ldr	r3, .L16+4
 177 00ba 40F6B832 		movw	r2, #3000
 178 00be 1A60     		str	r2, [r3]
  63:src/sys/sing_song.c ****     flag_play_note = 1;
 179              		.loc 1 63 0
 180 00c0 054A     		ldr	r2, .L16+8
 181 00c2 0121     		movs	r1, #1
 182 00c4 1160     		str	r1, [r2]
 183              	.L14:
  64:src/sys/sing_song.c ****     
  65:src/sys/sing_song.c ****     
  66:src/sys/sing_song.c ****     while(counter != 0); /*Adaugat acum*/
 184              		.loc 1 66 0 discriminator 1
 185 00c6 1A68     		ldr	r2, [r3]
 186 00c8 002A     		cmp	r2, #0
 187 00ca FCD1     		bne	.L14
  67:src/sys/sing_song.c ****     
  68:src/sys/sing_song.c **** }
 188              		.loc 1 68 0
 189 00cc 08BD     		pop	{r3, pc}
 190              	.L17:
 191 00ce 00BF     		.align	2
 192              	.L16:
 193 00d0 00000000 		.word	TIM2
 194 00d4 00000000 		.word	counter
 195 00d8 00000000 		.word	flag_play_note
 196              		.cfi_endproc
 197              	.LFE400:
 198              		.size	pause_entre_songs, .-pause_entre_songs
 199              		.comm	play_pause,4,4
 200              		.comm	counter,4,4
 201              		.comm	flag_play_note,4,4
 202              	.Letext0:
 203              		.file 2 "/usr/include/newlib/machine/_default_types.h"
 204              		.file 3 "/usr/include/newlib/sys/_stdint.h"
 205              		.file 4 "src/sys/devices.h"
 206              		.file 5 "src/sys/clock.h"
 207              		.file 6 "src/sys/potentiometer.h"